target datalayout = "e-m:e-p270:32:32-p271:32:32-p272:64:64-i64:64-i128:128-f80:128-n8:16:32:64-S128"
target triple = "x86_64-pc-linux-gnu"

%struct.ColorChartPreset = type { i32, i32, ptr }
%struct.AVFilterContext = type { ptr, ptr, ptr, ptr, ptr, i32, ptr, ptr, i32, ptr, ptr, i32, i32, ptr, ptr, ptr, ptr, i32, ptr, i32, i32 }
%struct.TestSourceContext = type { ptr, i32, i32, i32, i32, i32, %struct.AVRational, %struct.AVRational, i64, i64, %struct.AVRational, i32, i32, ptr, ptr, i32, i32, [4 x i8], i32, %struct.FFDrawContext, %struct.FFDrawColor, [4 x i8], [4 x i8], i32, i32, i32, i32, i32, i32, i32, i32, i32, i32, i32, i32, i32, i32, i32, i32, i32, i32, i32, ptr, ptr }
%struct.AVRational = type { i32, i32 }
%struct.FFDrawContext = type { ptr, i32, i32, [4 x i32], [4 x i8], [4 x i8], i8, i8, i32, i32, i32, [3 x [3 x double]] }
%struct.FFDrawColor = type { [4 x i8], [4 x %union.anon.2] }
%union.anon.2 = type { [4 x i32] }
%struct.AVChannelLayout = type { i32, i32, %union.anon.1, ptr }
%union.anon.1 = type { i64 }
%struct.AVFrame = type { [8 x ptr], [8 x i32], ptr, i32, i32, i32, i32, i32, %struct.AVRational, i64, i64, %struct.AVRational, i32, ptr, i32, i32, [8 x ptr], ptr, i32, ptr, i32, i32, i32, i32, i32, i32, i32, i64, ptr, i32, ptr, ptr, i64, i64, i64, i64, ptr, %struct.AVChannelLayout, i64 }

@colorchart_presets = internal constant [2 x %struct.ColorChartPreset] [%struct.ColorChartPreset { i32 6, i32 4, ptr @reference_colors }, %struct.ColorChartPreset { i32 6, i32 4, ptr @skintones_colors }], align 16

; Function Attrs: nounwind uwtable
define internal void @set_color(ptr noundef %0, ptr noundef %1, i32 noundef %2) #1 {
  %4 = alloca ptr, align 8
  %5 = alloca ptr, align 8
  %6 = alloca i32, align 4
  %7 = alloca [4 x i8], align 1
  store ptr %0, ptr %4, align 8, !tbaa !22
  store ptr %1, ptr %5, align 8, !tbaa !132
  store i32 %2, ptr %6, align 4, !tbaa !36
  call void @llvm.lifetime.start.p0(i64 4, ptr %7) #15
  %8 = load i32, ptr %6, align 4, !tbaa !36
  %9 = lshr i32 %8, 16
  %10 = and i32 %9, 255
  %11 = trunc i32 %10 to i8
  store i8 %11, ptr %7, align 1, !tbaa !97
  %12 = getelementptr inbounds i8, ptr %7, i64 1
  %13 = load i32, ptr %6, align 4, !tbaa !36
  %14 = lshr i32 %13, 8
  %15 = and i32 %14, 255
  %16 = trunc i32 %15 to i8
  store i8 %16, ptr %12, align 1, !tbaa !97
  %17 = getelementptr inbounds i8, ptr %7, i64 2
  %18 = load i32, ptr %6, align 4, !tbaa !36
  %19 = lshr i32 %18, 0
  %20 = and i32 %19, 255
  %21 = trunc i32 %20 to i8
  store i8 %21, ptr %17, align 1, !tbaa !97
  %22 = getelementptr inbounds i8, ptr %7, i64 3
  %23 = load i32, ptr %6, align 4, !tbaa !36
  %24 = lshr i32 %23, 24
  %25 = and i32 %24, 255
  %26 = trunc i32 %25 to i8
  store i8 %26, ptr %22, align 1, !tbaa !97
  %27 = load ptr, ptr %4, align 8, !tbaa !22
  %28 = getelementptr inbounds nuw %struct.TestSourceContext, ptr %27, i32 0, i32 19
  %29 = load ptr, ptr %5, align 8, !tbaa !132
  %30 = getelementptr inbounds [4 x i8], ptr %7, i64 0, i64 0
  call void @ff_draw_color(ptr noundef %28, ptr noundef %29, ptr noundef %30)
  call void @llvm.lifetime.end.p0(i64 4, ptr %7) #15
  ret void
}

; Function Attrs: nounwind uwtable
define internal void @colorchart_fill_picture(ptr noundef %0, ptr noundef %1) #1 {
  %3 = alloca ptr, align 8
  %4 = alloca ptr, align 8
  %5 = alloca ptr, align 8
  %6 = alloca i32, align 4
  %7 = alloca i32, align 4
  %8 = alloca i32, align 4
  %9 = alloca i32, align 4
  %10 = alloca i32, align 4
  %11 = alloca i32, align 4
  %12 = alloca i32, align 4
  %13 = alloca i32, align 4
  %14 = alloca i32, align 4
  %15 = alloca %struct.FFDrawColor, align 4
  store ptr %0, ptr %3, align 8, !tbaa !4
  store ptr %1, ptr %4, align 8, !tbaa !55
  call void @llvm.lifetime.start.p0(i64 8, ptr %5) #15
  %16 = load ptr, ptr %3, align 8, !tbaa !4
  %17 = getelementptr inbounds nuw %struct.AVFilterContext, ptr %16, i32 0, i32 9
  %18 = load ptr, ptr %17, align 8, !tbaa !9
  store ptr %18, ptr %5, align 8, !tbaa !22
  call void @llvm.lifetime.start.p0(i64 4, ptr %6) #15
  %19 = load ptr, ptr %5, align 8, !tbaa !22
  %20 = getelementptr inbounds nuw %struct.TestSourceContext, ptr %19, i32 0, i32 18
  %21 = load i32, ptr %20, align 4, !tbaa !68
  store i32 %21, ptr %6, align 4, !tbaa !36
  call void @llvm.lifetime.start.p0(i64 4, ptr %7) #15
  %22 = load i32, ptr %6, align 4, !tbaa !36
  %23 = sext i32 %22 to i64
  %24 = getelementptr inbounds [2 x %struct.ColorChartPreset], ptr @colorchart_presets, i64 0, i64 %23
  %25 = getelementptr inbounds nuw %struct.ColorChartPreset, ptr %24, i32 0, i32 0
  %26 = load i32, ptr %25, align 16, !tbaa !69
  store i32 %26, ptr %7, align 4, !tbaa !36
  call void @llvm.lifetime.start.p0(i64 4, ptr %8) #15
  %27 = load i32, ptr %6, align 4, !tbaa !36
  %28 = sext i32 %27 to i64
  %29 = getelementptr inbounds [2 x %struct.ColorChartPreset], ptr @colorchart_presets, i64 0, i64 %28
  %30 = getelementptr inbounds nuw %struct.ColorChartPreset, ptr %29, i32 0, i32 1
  %31 = load i32, ptr %30, align 4, !tbaa !71
  store i32 %31, ptr %8, align 4, !tbaa !36
  call void @llvm.lifetime.start.p0(i64 4, ptr %9) #15
  %32 = load ptr, ptr %5, align 8, !tbaa !22
  %33 = getelementptr inbounds nuw %struct.TestSourceContext, ptr %32, i32 0, i32 3
  %34 = load i32, ptr %33, align 8, !tbaa !72
  store i32 %34, ptr %9, align 4, !tbaa !36
  call void @llvm.lifetime.start.p0(i64 4, ptr %10) #15
  %35 = load ptr, ptr %5, align 8, !tbaa !22
  %36 = getelementptr inbounds nuw %struct.TestSourceContext, ptr %35, i32 0, i32 4
  %37 = load i32, ptr %36, align 4, !tbaa !73
  store i32 %37, ptr %10, align 4, !tbaa !36
  call void @llvm.lifetime.start.p0(i64 4, ptr %11) #15
  store i32 0, ptr %11, align 4, !tbaa !36
  br label %38

38:                                               ; preds = %124, %2
  %39 = load i32, ptr %11, align 4, !tbaa !36
  %40 = load i32, ptr %8, align 4, !tbaa !36
  %41 = icmp slt i32 %39, %40
  br i1 %41, label %43, label %42

42:                                               ; preds = %38
  store i32 2, ptr %12, align 4
  call void @llvm.lifetime.end.p0(i64 4, ptr %11) #15
  br label %127

43:                                               ; preds = %38
  call void @llvm.lifetime.start.p0(i64 4, ptr %13) #15
  store i32 0, ptr %13, align 4, !tbaa !36
  br label %44

44:                                               ; preds = %120, %43
  %45 = load i32, ptr %13, align 4, !tbaa !36
  %46 = load i32, ptr %7, align 4, !tbaa !36
  %47 = icmp slt i32 %45, %46
  br i1 %47, label %49, label %48

48:                                               ; preds = %44
  store i32 5, ptr %12, align 4
  call void @llvm.lifetime.end.p0(i64 4, ptr %13) #15
  br label %123

49:                                               ; preds = %44
  call void @llvm.lifetime.start.p0(i64 4, ptr %14) #15
  %50 = load i32, ptr %6, align 4, !tbaa !36
  %51 = sext i32 %50 to i64
  %52 = getelementptr inbounds [2 x %struct.ColorChartPreset], ptr @colorchart_presets, i64 0, i64 %51
  %53 = getelementptr inbounds nuw %struct.ColorChartPreset, ptr %52, i32 0, i32 2
  %54 = load ptr, ptr %53, align 8, !tbaa !167
  %55 = load i32, ptr %11, align 4, !tbaa !36
  %56 = load i32, ptr %7, align 4, !tbaa !36
  %57 = mul nsw i32 %55, %56
  %58 = load i32, ptr %13, align 4, !tbaa !36
  %59 = add nsw i32 %57, %58
  %60 = sext i32 %59 to i64
  %61 = getelementptr inbounds [3 x i8], ptr %54, i64 %60
  %62 = getelementptr inbounds [3 x i8], ptr %61, i64 0, i64 0
  %63 = getelementptr inbounds i8, ptr %62, i64 0
  %64 = load i8, ptr %63, align 1, !tbaa !97
  %65 = zext i8 %64 to i32
  %66 = shl i32 %65, 16
  %67 = load i32, ptr %6, align 4, !tbaa !36
  %68 = sext i32 %67 to i64
  %69 = getelementptr inbounds [2 x %struct.ColorChartPreset], ptr @colorchart_presets, i64 0, i64 %68
  %70 = getelementptr inbounds nuw %struct.ColorChartPreset, ptr %69, i32 0, i32 2
  %71 = load ptr, ptr %70, align 8, !tbaa !167
  %72 = load i32, ptr %11, align 4, !tbaa !36
  %73 = load i32, ptr %7, align 4, !tbaa !36
  %74 = mul nsw i32 %72, %73
  %75 = load i32, ptr %13, align 4, !tbaa !36
  %76 = add nsw i32 %74, %75
  %77 = sext i32 %76 to i64
  %78 = getelementptr inbounds [3 x i8], ptr %71, i64 %77
  %79 = getelementptr inbounds [3 x i8], ptr %78, i64 0, i64 0
  %80 = getelementptr inbounds i8, ptr %79, i64 1
  %81 = load i8, ptr %80, align 1, !tbaa !97
  %82 = zext i8 %81 to i32
  %83 = shl i32 %82, 8
  %84 = or i32 %66, %83
  %85 = load i32, ptr %6, align 4, !tbaa !36
  %86 = sext i32 %85 to i64
  %87 = getelementptr inbounds [2 x %struct.ColorChartPreset], ptr @colorchart_presets, i64 0, i64 %86
  %88 = getelementptr inbounds nuw %struct.ColorChartPreset, ptr %87, i32 0, i32 2
  %89 = load ptr, ptr %88, align 8, !tbaa !167
  %90 = load i32, ptr %11, align 4, !tbaa !36
  %91 = load i32, ptr %7, align 4, !tbaa !36
  %92 = mul nsw i32 %90, %91
  %93 = load i32, ptr %13, align 4, !tbaa !36
  %94 = add nsw i32 %92, %93
  %95 = sext i32 %94 to i64
  %96 = getelementptr inbounds [3 x i8], ptr %89, i64 %95
  %97 = getelementptr inbounds [3 x i8], ptr %96, i64 0, i64 0
  %98 = getelementptr inbounds i8, ptr %97, i64 2
  %99 = load i8, ptr %98, align 1, !tbaa !97
  %100 = zext i8 %99 to i32
  %101 = or i32 %84, %100
  store i32 %101, ptr %14, align 4, !tbaa !36
  call void @llvm.lifetime.start.p0(i64 68, ptr %15) #15
  %102 = load ptr, ptr %5, align 8, !tbaa !22
  %103 = load i32, ptr %14, align 4, !tbaa !36
  call void @set_color(ptr noundef %102, ptr noundef %15, i32 noundef %103)
  %104 = load ptr, ptr %5, align 8, !tbaa !22
  %105 = getelementptr inbounds nuw %struct.TestSourceContext, ptr %104, i32 0, i32 19
  %106 = load ptr, ptr %4, align 8, !tbaa !55
  %107 = getelementptr inbounds nuw %struct.AVFrame, ptr %106, i32 0, i32 0
  %108 = getelementptr inbounds [8 x ptr], ptr %107, i64 0, i64 0
  %109 = load ptr, ptr %4, align 8, !tbaa !55
  %110 = getelementptr inbounds nuw %struct.AVFrame, ptr %109, i32 0, i32 1
  %111 = getelementptr inbounds [8 x i32], ptr %110, i64 0, i64 0
  %112 = load i32, ptr %13, align 4, !tbaa !36
  %113 = load i32, ptr %9, align 4, !tbaa !36
  %114 = mul nsw i32 %112, %113
  %115 = load i32, ptr %11, align 4, !tbaa !36
  %116 = load i32, ptr %10, align 4, !tbaa !36
  %117 = mul nsw i32 %115, %116
  %118 = load i32, ptr %9, align 4, !tbaa !36
  %119 = load i32, ptr %10, align 4, !tbaa !36
  call void @ff_fill_rectangle(ptr noundef %105, ptr noundef %15, ptr noundef %108, ptr noundef %111, i32 noundef %114, i32 noundef %117, i32 noundef %118, i32 noundef %119)
  call void @llvm.lifetime.end.p0(i64 68, ptr %15) #15
  call void @llvm.lifetime.end.p0(i64 4, ptr %14) #15
  br label %120

120:                                              ; preds = %49
  %121 = load i32, ptr %13, align 4, !tbaa !36
  %122 = add nsw i32 %121, 1
  store i32 %122, ptr %13, align 4, !tbaa !36
  br label %44, !llvm.loop !168

123:                                              ; preds = %48
  br label %124

124:                                              ; preds = %123
  %125 = load i32, ptr %11, align 4, !tbaa !36
  %126 = add nsw i32 %125, 1
  store i32 %126, ptr %11, align 4, !tbaa !36
  br label %38, !llvm.loop !169

127:                                              ; preds = %42
  call void @llvm.lifetime.end.p0(i64 4, ptr %10) #15
  call void @llvm.lifetime.end.p0(i64 4, ptr %9) #15
  call void @llvm.lifetime.end.p0(i64 4, ptr %8) #15
  call void @llvm.lifetime.end.p0(i64 4, ptr %7) #15
  call void @llvm.lifetime.end.p0(i64 4, ptr %6) #15
  call void @llvm.lifetime.end.p0(i64 8, ptr %5) #15
  ret void
}