; Function Attrs: nounwind uwtable
define internal void @colorchart_fill_picture(ptr noundef readonly captures(none) %0, ptr noundef %1) #1 {
  %3 = alloca [4 x i8], align 1
  %4 = alloca %struct.FFDrawColor, align 4
  %5 = getelementptr inbounds nuw i8, ptr %0, i64 72
  %6 = load ptr, ptr %5, align 8, !tbaa !4
  %7 = getelementptr inbounds nuw i8, ptr %6, i64 108
  %8 = load i32, ptr %7, align 4, !tbaa !133
  %9 = sext i32 %8 to i64
  %10 = getelementptr inbounds nuw i8, ptr %6, i64 16
  %11 = load i32, ptr %10, align 8, !tbaa !57
  %12 = getelementptr inbounds nuw i8, ptr %6, i64 20
  %13 = load i32, ptr %12, align 4, !tbaa !58
  %14 = getelementptr inbounds [2 x %struct.ColorChartPreset], ptr @colorchart_presets, i64 0, i64 %9, i32 2
  %15 = load ptr, ptr %14, align 8, !tbaa !138
  %16 = getelementptr inbounds nuw i8, ptr %3, i64 1
  %17 = getelementptr inbounds nuw i8, ptr %3, i64 2
  %18 = getelementptr inbounds nuw i8, ptr %3, i64 3
  %19 = getelementptr inbounds nuw i8, ptr %6, i64 112
  %20 = getelementptr inbounds nuw i8, ptr %1, i64 64
  br label %.preheader

.preheader:                                       ; preds = %2, %24
  %indvars.iv39 = phi i64 [ 0, %2 ], [ %indvars.iv.next40, %24 ]
  %.idx = mul nuw nsw i64 %indvars.iv39, 18
  %invariant.gep = getelementptr inbounds nuw i8, ptr %15, i64 %.idx
  %21 = trunc i64 %indvars.iv39 to i32
  %22 = mul i32 %13, %21
  br label %25

23:                                               ; preds = %24
  ret void

24:                                               ; preds = %25
  %indvars.iv.next40 = add nuw nsw i64 %indvars.iv39, 1
  %exitcond42.not = icmp eq i64 %indvars.iv.next40, 4
  br i1 %exitcond42.not, label %23, label %.preheader, !llvm.loop !140

25:                                               ; preds = %.preheader, %25
  %indvars.iv = phi i64 [ 0, %.preheader ], [ %indvars.iv.next, %25 ]
  %gep = getelementptr inbounds nuw [3 x i8], ptr %invariant.gep, i64 %indvars.iv
  %26 = load i8, ptr %gep, align 1, !tbaa !76
  %27 = getelementptr inbounds nuw i8, ptr %gep, i64 1
  %28 = load i8, ptr %27, align 1, !tbaa !76
  %29 = getelementptr inbounds nuw i8, ptr %gep, i64 2
  %30 = load i8, ptr %29, align 1, !tbaa !76
  call void @llvm.lifetime.start.p0(i64 68, ptr nonnull %4) #20
  call void @llvm.lifetime.start.p0(i64 4, ptr nonnull %3) #20
  store i8 %26, ptr %3, align 1, !tbaa !76
  store i8 %28, ptr %16, align 1, !tbaa !76
  store i8 %30, ptr %17, align 1, !tbaa !76
  store i8 0, ptr %18, align 1, !tbaa !76
  call void @ff_draw_color(ptr noundef nonnull %19, ptr noundef nonnull %4, ptr noundef nonnull %3) #20
  call void @llvm.lifetime.end.p0(i64 4, ptr nonnull %3) #20
  %31 = trunc i64 %indvars.iv to i32
  %32 = mul i32 %11, %31
  call void @ff_fill_rectangle(ptr noundef nonnull %19, ptr noundef nonnull %4, ptr noundef %1, ptr noundef nonnull %20, i32 noundef %32, i32 noundef %22, i32 noundef %11, i32 noundef %13) #20
  call void @llvm.lifetime.end.p0(i64 68, ptr nonnull %4) #20
  %indvars.iv.next = add nuw nsw i64 %indvars.iv, 1
  %exitcond.not = icmp eq i64 %indvars.iv.next, 6
  br i1 %exitcond.not, label %24, label %25, !llvm.loop !141
}